target datalayout = "e-m:e-p270:32:32-p271:32:32-p272:64:64-i64:64-i128:128-f80:128-n8:16:32:64-S128"
target triple = "x86_64-pc-linux-gnu"

@ff_crop_tab = external hidden constant [2304 x i8], align 16

; Function Attrs: alwaysinline nounwind willreturn memory(none) uwtable
define internal i32 @av_clip_c(i32 noundef %0, i32 noundef %1, i32 noundef %2) #6 {
  %4 = alloca i32, align 4
  %5 = alloca i32, align 4
  %6 = alloca i32, align 4
  %7 = alloca i32, align 4
  store i32 %0, ptr %5, align 4, !tbaa !14
  store i32 %1, ptr %6, align 4, !tbaa !14
  store i32 %2, ptr %7, align 4, !tbaa !14
  %8 = load i32, ptr %5, align 4, !tbaa !14
  %9 = load i32, ptr %6, align 4, !tbaa !14
  %10 = icmp slt i32 %8, %9
  br i1 %10, label %11, label %13

11:                                               ; preds = %3
  %12 = load i32, ptr %6, align 4, !tbaa !14
  store i32 %12, ptr %4, align 4
  br label %21

13:                                               ; preds = %3
  %14 = load i32, ptr %5, align 4, !tbaa !14
  %15 = load i32, ptr %7, align 4, !tbaa !14
  %16 = icmp sgt i32 %14, %15
  br i1 %16, label %17, label %19

17:                                               ; preds = %13
  %18 = load i32, ptr %7, align 4, !tbaa !14
  store i32 %18, ptr %4, align 4
  br label %21

19:                                               ; preds = %13
  %20 = load i32, ptr %5, align 4, !tbaa !14
  store i32 %20, ptr %4, align 4
  br label %21

21:                                               ; preds = %19, %17, %11
  %22 = load i32, ptr %4, align 4
  ret i32 %22
}

; Function Attrs: alwaysinline nounwind uwtable
define internal void @rv40_weak_loop_filter(ptr noundef %0, i32 noundef %1, i64 noundef %2, i32 noundef %3, i32 noundef %4, i32 noundef %5, i32 noundef %6, i32 noundef %7, i32 noundef %8, i32 noundef %9) #5 {
  %11 = alloca ptr, align 8
  %12 = alloca i32, align 4
  %13 = alloca i64, align 8
  %14 = alloca i32, align 4
  %15 = alloca i32, align 4
  %16 = alloca i32, align 4
  %17 = alloca i32, align 4
  %18 = alloca i32, align 4
  %19 = alloca i32, align 4
  %20 = alloca i32, align 4
  %21 = alloca ptr, align 8
  %22 = alloca i32, align 4
  %23 = alloca i32, align 4
  %24 = alloca i32, align 4
  %25 = alloca i32, align 4
  %26 = alloca i32, align 4
  %27 = alloca i32, align 4
  %28 = alloca i32, align 4
  %29 = alloca i32, align 4
  %30 = alloca i32, align 4
  store ptr %0, ptr %11, align 8, !tbaa !10
  store i32 %1, ptr %12, align 4, !tbaa !14
  store i64 %2, ptr %13, align 8, !tbaa !12
  store i32 %3, ptr %14, align 4, !tbaa !14
  store i32 %4, ptr %15, align 4, !tbaa !14
  store i32 %5, ptr %16, align 4, !tbaa !14
  store i32 %6, ptr %17, align 4, !tbaa !14
  store i32 %7, ptr %18, align 4, !tbaa !14
  store i32 %8, ptr %19, align 4, !tbaa !14
  store i32 %9, ptr %20, align 4, !tbaa !14
  call void @llvm.lifetime.start.p0(i64 8, ptr %21) #7
  store ptr getelementptr inbounds (i8, ptr @ff_crop_tab, i64 1024), ptr %21, align 8, !tbaa !10
  call void @llvm.lifetime.start.p0(i64 4, ptr %22) #7
  call void @llvm.lifetime.start.p0(i64 4, ptr %23) #7
  call void @llvm.lifetime.start.p0(i64 4, ptr %24) #7
  call void @llvm.lifetime.start.p0(i64 4, ptr %25) #7
  store i32 0, ptr %22, align 4, !tbaa !14
  br label %31

31:                                               ; preds = %299, %10
  %32 = load i32, ptr %22, align 4, !tbaa !14
  %33 = icmp slt i32 %32, 4
  br i1 %33, label %34, label %305

34:                                               ; preds = %31
  call void @llvm.lifetime.start.p0(i64 4, ptr %26) #7
  %35 = load ptr, ptr %11, align 8, !tbaa !10
  %36 = load i32, ptr %12, align 4, !tbaa !14
  %37 = mul nsw i32 -2, %36
  %38 = sext i32 %37 to i64
  %39 = getelementptr inbounds i8, ptr %35, i64 %38
  %40 = load i8, ptr %39, align 1, !tbaa !16
  %41 = zext i8 %40 to i32
  %42 = load ptr, ptr %11, align 8, !tbaa !10
  %43 = load i32, ptr %12, align 4, !tbaa !14
  %44 = mul nsw i32 -1, %43
  %45 = sext i32 %44 to i64
  %46 = getelementptr inbounds i8, ptr %42, i64 %45
  %47 = load i8, ptr %46, align 1, !tbaa !16
  %48 = zext i8 %47 to i32
  %49 = sub nsw i32 %41, %48
  store i32 %49, ptr %26, align 4, !tbaa !14
  call void @llvm.lifetime.start.p0(i64 4, ptr %27) #7
  %50 = load ptr, ptr %11, align 8, !tbaa !10
  %51 = load i32, ptr %12, align 4, !tbaa !14
  %52 = mul nsw i32 1, %51
  %53 = sext i32 %52 to i64
  %54 = getelementptr inbounds i8, ptr %50, i64 %53
  %55 = load i8, ptr %54, align 1, !tbaa !16
  %56 = zext i8 %55 to i32
  %57 = load ptr, ptr %11, align 8, !tbaa !10
  %58 = load i32, ptr %12, align 4, !tbaa !14
  %59 = mul nsw i32 0, %58
  %60 = sext i32 %59 to i64
  %61 = getelementptr inbounds i8, ptr %57, i64 %60
  %62 = load i8, ptr %61, align 1, !tbaa !16
  %63 = zext i8 %62 to i32
  %64 = sub nsw i32 %56, %63
  store i32 %64, ptr %27, align 4, !tbaa !14
  call void @llvm.lifetime.start.p0(i64 4, ptr %28) #7
  %65 = load ptr, ptr %11, align 8, !tbaa !10
  %66 = load i32, ptr %12, align 4, !tbaa !14
  %67 = mul nsw i32 -2, %66
  %68 = sext i32 %67 to i64
  %69 = getelementptr inbounds i8, ptr %65, i64 %68
  %70 = load i8, ptr %69, align 1, !tbaa !16
  %71 = zext i8 %70 to i32
  %72 = load ptr, ptr %11, align 8, !tbaa !10
  %73 = load i32, ptr %12, align 4, !tbaa !14
  %74 = mul nsw i32 -3, %73
  %75 = sext i32 %74 to i64
  %76 = getelementptr inbounds i8, ptr %72, i64 %75
  %77 = load i8, ptr %76, align 1, !tbaa !16
  %78 = zext i8 %77 to i32
  %79 = sub nsw i32 %71, %78
  store i32 %79, ptr %28, align 4, !tbaa !14
  call void @llvm.lifetime.start.p0(i64 4, ptr %29) #7
  %80 = load ptr, ptr %11, align 8, !tbaa !10
  %81 = load i32, ptr %12, align 4, !tbaa !14
  %82 = mul nsw i32 1, %81
  %83 = sext i32 %82 to i64
  %84 = getelementptr inbounds i8, ptr %80, i64 %83
  %85 = load i8, ptr %84, align 1, !tbaa !16
  %86 = zext i8 %85 to i32
  %87 = load ptr, ptr %11, align 8, !tbaa !10
  %88 = load i32, ptr %12, align 4, !tbaa !14
  %89 = mul nsw i32 2, %88
  %90 = sext i32 %89 to i64
  %91 = getelementptr inbounds i8, ptr %87, i64 %90
  %92 = load i8, ptr %91, align 1, !tbaa !16
  %93 = zext i8 %92 to i32
  %94 = sub nsw i32 %86, %93
  store i32 %94, ptr %29, align 4, !tbaa !14
  %95 = load ptr, ptr %11, align 8, !tbaa !10
  %96 = load i32, ptr %12, align 4, !tbaa !14
  %97 = mul nsw i32 0, %96
  %98 = sext i32 %97 to i64
  %99 = getelementptr inbounds i8, ptr %95, i64 %98
  %100 = load i8, ptr %99, align 1, !tbaa !16
  %101 = zext i8 %100 to i32
  %102 = load ptr, ptr %11, align 8, !tbaa !10
  %103 = load i32, ptr %12, align 4, !tbaa !14
  %104 = mul nsw i32 -1, %103
  %105 = sext i32 %104 to i64
  %106 = getelementptr inbounds i8, ptr %102, i64 %105
  %107 = load i8, ptr %106, align 1, !tbaa !16
  %108 = zext i8 %107 to i32
  %109 = sub nsw i32 %101, %108
  store i32 %109, ptr %23, align 4, !tbaa !14
  %110 = load i32, ptr %23, align 4, !tbaa !14
  %111 = icmp ne i32 %110, 0
  br i1 %111, label %113, label %112

112:                                              ; preds = %34
  store i32 4, ptr %30, align 4
  br label %296

113:                                              ; preds = %34
  %114 = load i32, ptr %16, align 4, !tbaa !14
  %115 = load i32, ptr %23, align 4, !tbaa !14
  %116 = icmp sge i32 %115, 0
  br i1 %116, label %117, label %119

117:                                              ; preds = %113
  %118 = load i32, ptr %23, align 4, !tbaa !14
  br label %122

119:                                              ; preds = %113
  %120 = load i32, ptr %23, align 4, !tbaa !14
  %121 = sub nsw i32 0, %120
  br label %122

122:                                              ; preds = %119, %117
  %123 = phi i32 [ %118, %117 ], [ %121, %119 ]
  %124 = mul nsw i32 %114, %123
  %125 = ashr i32 %124, 7
  store i32 %125, ptr %24, align 4, !tbaa !14
  %126 = load i32, ptr %24, align 4, !tbaa !14
  %127 = load i32, ptr %14, align 4, !tbaa !14
  %128 = icmp ne i32 %127, 0
  br i1 %128, label %129, label %132

129:                                              ; preds = %122
  %130 = load i32, ptr %15, align 4, !tbaa !14
  %131 = icmp ne i32 %130, 0
  br label %132

132:                                              ; preds = %129, %122
  %133 = phi i1 [ false, %122 ], [ %131, %129 ]
  %134 = zext i1 %133 to i32
  %135 = sub nsw i32 3, %134
  %136 = icmp sgt i32 %126, %135
  br i1 %136, label %137, label %138

137:                                              ; preds = %132
  store i32 4, ptr %30, align 4
  br label %296

138:                                              ; preds = %132
  %139 = load i32, ptr %23, align 4, !tbaa !14
  %140 = mul nsw i32 %139, 4
  store i32 %140, ptr %23, align 4, !tbaa !14
  %141 = load i32, ptr %14, align 4, !tbaa !14
  %142 = icmp ne i32 %141, 0
  br i1 %142, label %143, label %164

143:                                              ; preds = %138
  %144 = load i32, ptr %15, align 4, !tbaa !14
  %145 = icmp ne i32 %144, 0
  br i1 %145, label %146, label %164

146:                                              ; preds = %143
  %147 = load ptr, ptr %11, align 8, !tbaa !10
  %148 = load i32, ptr %12, align 4, !tbaa !14
  %149 = mul nsw i32 -2, %148
  %150 = sext i32 %149 to i64
  %151 = getelementptr inbounds i8, ptr %147, i64 %150
  %152 = load i8, ptr %151, align 1, !tbaa !16
  %153 = zext i8 %152 to i32
  %154 = load ptr, ptr %11, align 8, !tbaa !10
  %155 = load i32, ptr %12, align 4, !tbaa !14
  %156 = mul nsw i32 1, %155
  %157 = sext i32 %156 to i64
  %158 = getelementptr inbounds i8, ptr %154, i64 %157
  %159 = load i8, ptr %158, align 1, !tbaa !16
  %160 = zext i8 %159 to i32
  %161 = sub nsw i32 %153, %160
  %162 = load i32, ptr %23, align 4, !tbaa !14
  %163 = add nsw i32 %162, %161
  store i32 %163, ptr %23, align 4, !tbaa !14
  br label %164

164:                                              ; preds = %146, %143, %138
  %165 = load i32, ptr %23, align 4, !tbaa !14
  %166 = add nsw i32 %165, 4
  %167 = ashr i32 %166, 3
  %168 = load i32, ptr %18, align 4, !tbaa !14
  %169 = sub nsw i32 0, %168
  %170 = load i32, ptr %18, align 4, !tbaa !14
  %171 = call i32 @av_clip_c(i32 noundef %167, i32 noundef %169, i32 noundef %170) #8
  store i32 %171, ptr %25, align 4, !tbaa !14
  %172 = load ptr, ptr %21, align 8, !tbaa !10
  %173 = load ptr, ptr %11, align 8, !tbaa !10
  %174 = load i32, ptr %12, align 4, !tbaa !14
  %175 = mul nsw i32 -1, %174
  %176 = sext i32 %175 to i64
  %177 = getelementptr inbounds i8, ptr %173, i64 %176
  %178 = load i8, ptr %177, align 1, !tbaa !16
  %179 = zext i8 %178 to i32
  %180 = load i32, ptr %25, align 4, !tbaa !14
  %181 = add nsw i32 %179, %180
  %182 = sext i32 %181 to i64
  %183 = getelementptr inbounds i8, ptr %172, i64 %182
  %184 = load i8, ptr %183, align 1, !tbaa !16
  %185 = load ptr, ptr %11, align 8, !tbaa !10
  %186 = load i32, ptr %12, align 4, !tbaa !14
  %187 = mul nsw i32 -1, %186
  %188 = sext i32 %187 to i64
  %189 = getelementptr inbounds i8, ptr %185, i64 %188
  store i8 %184, ptr %189, align 1, !tbaa !16
  %190 = load ptr, ptr %21, align 8, !tbaa !10
  %191 = load ptr, ptr %11, align 8, !tbaa !10
  %192 = load i32, ptr %12, align 4, !tbaa !14
  %193 = mul nsw i32 0, %192
  %194 = sext i32 %193 to i64
  %195 = getelementptr inbounds i8, ptr %191, i64 %194
  %196 = load i8, ptr %195, align 1, !tbaa !16
  %197 = zext i8 %196 to i32
  %198 = load i32, ptr %25, align 4, !tbaa !14
  %199 = sub nsw i32 %197, %198
  %200 = sext i32 %199 to i64
  %201 = getelementptr inbounds i8, ptr %190, i64 %200
  %202 = load i8, ptr %201, align 1, !tbaa !16
  %203 = load ptr, ptr %11, align 8, !tbaa !10
  %204 = load i32, ptr %12, align 4, !tbaa !14
  %205 = mul nsw i32 0, %204
  %206 = sext i32 %205 to i64
  %207 = getelementptr inbounds i8, ptr %203, i64 %206
  store i8 %202, ptr %207, align 1, !tbaa !16
  %208 = load i32, ptr %14, align 4, !tbaa !14
  %209 = icmp ne i32 %208, 0
  br i1 %209, label %210, label %251

210:                                              ; preds = %164
  %211 = load i32, ptr %28, align 4, !tbaa !14
  %212 = icmp sge i32 %211, 0
  br i1 %212, label %213, label %215

213:                                              ; preds = %210
  %214 = load i32, ptr %28, align 4, !tbaa !14
  br label %218

215:                                              ; preds = %210
  %216 = load i32, ptr %28, align 4, !tbaa !14
  %217 = sub nsw i32 0, %216
  br label %218

218:                                              ; preds = %215, %213
  %219 = phi i32 [ %214, %213 ], [ %217, %215 ]
  %220 = load i32, ptr %17, align 4, !tbaa !14
  %221 = icmp sle i32 %219, %220
  br i1 %221, label %222, label %251

222:                                              ; preds = %218
  %223 = load i32, ptr %26, align 4, !tbaa !14
  %224 = load i32, ptr %28, align 4, !tbaa !14
  %225 = add nsw i32 %223, %224
  %226 = load i32, ptr %25, align 4, !tbaa !14
  %227 = sub nsw i32 %225, %226
  %228 = ashr i32 %227, 1
  store i32 %228, ptr %23, align 4, !tbaa !14
  %229 = load ptr, ptr %21, align 8, !tbaa !10
  %230 = load ptr, ptr %11, align 8, !tbaa !10
  %231 = load i32, ptr %12, align 4, !tbaa !14
  %232 = mul nsw i32 -2, %231
  %233 = sext i32 %232 to i64
  %234 = getelementptr inbounds i8, ptr %230, i64 %233
  %235 = load i8, ptr %234, align 1, !tbaa !16
  %236 = zext i8 %235 to i32
  %237 = load i32, ptr %23, align 4, !tbaa !14
  %238 = load i32, ptr %20, align 4, !tbaa !14
  %239 = sub nsw i32 0, %238
  %240 = load i32, ptr %20, align 4, !tbaa !14
  %241 = call i32 @av_clip_c(i32 noundef %237, i32 noundef %239, i32 noundef %240) #8
  %242 = sub nsw i32 %236, %241
  %243 = sext i32 %242 to i64
  %244 = getelementptr inbounds i8, ptr %229, i64 %243
  %245 = load i8, ptr %244, align 1, !tbaa !16
  %246 = load ptr, ptr %11, align 8, !tbaa !10
  %247 = load i32, ptr %12, align 4, !tbaa !14
  %248 = mul nsw i32 -2, %247
  %249 = sext i32 %248 to i64
  %250 = getelementptr inbounds i8, ptr %246, i64 %249
  store i8 %245, ptr %250, align 1, !tbaa !16
  br label %251

251:                                              ; preds = %222, %218, %164
  %252 = load i32, ptr %15, align 4, !tbaa !14
  %253 = icmp ne i32 %252, 0
  br i1 %253, label %254, label %295

254:                                              ; preds = %251
  %255 = load i32, ptr %29, align 4, !tbaa !14
  %256 = icmp sge i32 %255, 0
  br i1 %256, label %257, label %259

257:                                              ; preds = %254
  %258 = load i32, ptr %29, align 4, !tbaa !14
  br label %262

259:                                              ; preds = %254
  %260 = load i32, ptr %29, align 4, !tbaa !14
  %261 = sub nsw i32 0, %260
  br label %262

262:                                              ; preds = %259, %257
  %263 = phi i32 [ %258, %257 ], [ %261, %259 ]
  %264 = load i32, ptr %17, align 4, !tbaa !14
  %265 = icmp sle i32 %263, %264
  br i1 %265, label %266, label %295

266:                                              ; preds = %262
  %267 = load i32, ptr %27, align 4, !tbaa !14
  %268 = load i32, ptr %29, align 4, !tbaa !14
  %269 = add nsw i32 %267, %268
  %270 = load i32, ptr %25, align 4, !tbaa !14
  %271 = add nsw i32 %269, %270
  %272 = ashr i32 %271, 1
  store i32 %272, ptr %23, align 4, !tbaa !14
  %273 = load ptr, ptr %21, align 8, !tbaa !10
  %274 = load ptr, ptr %11, align 8, !tbaa !10
  %275 = load i32, ptr %12, align 4, !tbaa !14
  %276 = mul nsw i32 1, %275
  %277 = sext i32 %276 to i64
  %278 = getelementptr inbounds i8, ptr %274, i64 %277
  %279 = load i8, ptr %278, align 1, !tbaa !16
  %280 = zext i8 %279 to i32
  %281 = load i32, ptr %23, align 4, !tbaa !14
  %282 = load i32, ptr %19, align 4, !tbaa !14
  %283 = sub nsw i32 0, %282
  %284 = load i32, ptr %19, align 4, !tbaa !14
  %285 = call i32 @av_clip_c(i32 noundef %281, i32 noundef %283, i32 noundef %284) #8
  %286 = sub nsw i32 %280, %285
  %287 = sext i32 %286 to i64
  %288 = getelementptr inbounds i8, ptr %273, i64 %287
  %289 = load i8, ptr %288, align 1, !tbaa !16
  %290 = load ptr, ptr %11, align 8, !tbaa !10
  %291 = load i32, ptr %12, align 4, !tbaa !14
  %292 = mul nsw i32 1, %291
  %293 = sext i32 %292 to i64
  %294 = getelementptr inbounds i8, ptr %290, i64 %293
  store i8 %289, ptr %294, align 1, !tbaa !16
  br label %295

295:                                              ; preds = %266, %262, %251
  store i32 0, ptr %30, align 4
  br label %296

296:                                              ; preds = %295, %137, %112
  call void @llvm.lifetime.end.p0(i64 4, ptr %29) #7
  call void @llvm.lifetime.end.p0(i64 4, ptr %28) #7
  call void @llvm.lifetime.end.p0(i64 4, ptr %27) #7
  call void @llvm.lifetime.end.p0(i64 4, ptr %26) #7
  %297 = load i32, ptr %30, align 4
  switch i32 %297, label %306 [
    i32 0, label %298
    i32 4, label %299
  ]

298:                                              ; preds = %296
  br label %299

299:                                              ; preds = %298, %296
  %300 = load i32, ptr %22, align 4, !tbaa !14
  %301 = add nsw i32 %300, 1
  store i32 %301, ptr %22, align 4, !tbaa !14
  %302 = load i64, ptr %13, align 8, !tbaa !12
  %303 = load ptr, ptr %11, align 8, !tbaa !10
  %304 = getelementptr inbounds i8, ptr %303, i64 %302
  store ptr %304, ptr %11, align 8, !tbaa !10
  br label %31, !llvm.loop !44

305:                                              ; preds = %31
  call void @llvm.lifetime.end.p0(i64 4, ptr %25) #7
  call void @llvm.lifetime.end.p0(i64 4, ptr %24) #7
  call void @llvm.lifetime.end.p0(i64 4, ptr %23) #7
  call void @llvm.lifetime.end.p0(i64 4, ptr %22) #7
  call void @llvm.lifetime.end.p0(i64 8, ptr %21) #7
  ret void

306:                                              ; preds = %296
  unreachable
}

; Function Attrs: nounwind uwtable
define internal void @rv40_v_weak_loop_filter(ptr noundef %0, i64 noundef %1, i32 noundef %2, i32 noundef %3, i32 noundef %4, i32 noundef %5, i32 noundef %6, i32 noundef %7, i32 noundef %8) #3 {
  %10 = alloca ptr, align 8
  %11 = alloca i64, align 8
  %12 = alloca i32, align 4
  %13 = alloca i32, align 4
  %14 = alloca i32, align 4
  %15 = alloca i32, align 4
  %16 = alloca i32, align 4
  %17 = alloca i32, align 4
  %18 = alloca i32, align 4
  store ptr %0, ptr %10, align 8, !tbaa !10
  store i64 %1, ptr %11, align 8, !tbaa !12
  store i32 %2, ptr %12, align 4, !tbaa !14
  store i32 %3, ptr %13, align 4, !tbaa !14
  store i32 %4, ptr %14, align 4, !tbaa !14
  store i32 %5, ptr %15, align 4, !tbaa !14
  store i32 %6, ptr %16, align 4, !tbaa !14
  store i32 %7, ptr %17, align 4, !tbaa !14
  store i32 %8, ptr %18, align 4, !tbaa !14
  %19 = load ptr, ptr %10, align 8, !tbaa !10
  %20 = load i64, ptr %11, align 8, !tbaa !12
  %21 = load i32, ptr %12, align 4, !tbaa !14
  %22 = load i32, ptr %13, align 4, !tbaa !14
  %23 = load i32, ptr %14, align 4, !tbaa !14
  %24 = load i32, ptr %15, align 4, !tbaa !14
  %25 = load i32, ptr %16, align 4, !tbaa !14
  %26 = load i32, ptr %17, align 4, !tbaa !14
  %27 = load i32, ptr %18, align 4, !tbaa !14
  call void @rv40_weak_loop_filter(ptr noundef %19, i32 noundef 1, i64 noundef %20, i32 noundef %21, i32 noundef %22, i32 noundef %23, i32 noundef %24, i32 noundef %25, i32 noundef %26, i32 noundef %27)
  ret void
}