; Function Attrs: nofree norecurse nosync nounwind memory(argmem: readwrite) uwtable
define internal void @rv40_v_weak_loop_filter(ptr noundef captures(none) %0, i64 noundef %1, i32 noundef %2, i32 noundef %3, i32 noundef %4, i32 noundef %5, i32 noundef %6, i32 noundef %7, i32 noundef %8) #3 {
  %10 = icmp ne i32 %2, 0
  %11 = icmp ne i32 %3, 0
  %12 = and i1 %10, %11
  %13 = select i1 %12, i32 2, i32 3
  %14 = sub nsw i32 0, %6
  %15 = sub nsw i32 0, %8
  %16 = sub nsw i32 0, %7
  br label %17

17:                                               ; preds = %9, %80
  %.0.i15 = phi ptr [ %0, %9 ], [ %82, %80 ]
  %.087.i14 = phi i32 [ 0, %9 ], [ %81, %80 ]
  %18 = getelementptr inbounds i8, ptr %.0.i15, i64 -2
  %19 = load i8, ptr %18, align 1, !tbaa !8
  %20 = zext i8 %19 to i32
  %21 = getelementptr inbounds i8, ptr %.0.i15, i64 -1
  %22 = load i8, ptr %21, align 1, !tbaa !8
  %23 = zext i8 %22 to i32
  %24 = getelementptr inbounds nuw i8, ptr %.0.i15, i64 1
  %25 = load i8, ptr %24, align 1, !tbaa !8
  %26 = zext i8 %25 to i32
  %27 = load i8, ptr %.0.i15, align 1, !tbaa !8
  %28 = zext i8 %27 to i32
  %29 = sub nsw i32 %26, %28
  %30 = getelementptr inbounds i8, ptr %.0.i15, i64 -3
  %31 = load i8, ptr %30, align 1, !tbaa !8
  %32 = zext i8 %31 to i32
  %33 = sub nsw i32 %20, %32
  %34 = getelementptr inbounds nuw i8, ptr %.0.i15, i64 2
  %35 = load i8, ptr %34, align 1, !tbaa !8
  %36 = zext i8 %35 to i32
  %37 = sub nsw i32 %26, %36
  %38 = sub nsw i32 %28, %23
  %.not.i = icmp eq i8 %27, %22
  br i1 %.not.i, label %80, label %39

39:                                               ; preds = %17
  %40 = tail call i32 @llvm.abs.i32(i32 %38, i1 true)
  %41 = mul nsw i32 %40, %4
  %42 = ashr i32 %41, 7
  %43 = icmp sgt i32 %42, %13
  br i1 %43, label %80, label %44

44:                                               ; preds = %39
  %45 = shl nsw i32 %38, 2
  %46 = sub nsw i32 %20, %26
  %47 = add nsw i32 %46, 4
  %.088.i = select i1 %12, i32 %47, i32 4
  %48 = add nsw i32 %.088.i, %45
  %49 = ashr i32 %48, 3
  %50 = icmp slt i32 %49, %14
  %..i11 = tail call i32 @llvm.smin.i32(i32 %49, i32 %6)
  %.0.i12 = select i1 %50, i32 %14, i32 %..i11
  %51 = add nsw i32 %.0.i12, %23
  %52 = sext i32 %51 to i64
  %53 = getelementptr inbounds i8, ptr getelementptr inbounds nuw (i8, ptr @ff_crop_tab, i64 1024), i64 %52
  %54 = load i8, ptr %53, align 1, !tbaa !8
  store i8 %54, ptr %21, align 1, !tbaa !8
  %55 = sub nsw i32 %28, %.0.i12
  %56 = sext i32 %55 to i64
  %57 = getelementptr inbounds i8, ptr getelementptr inbounds nuw (i8, ptr @ff_crop_tab, i64 1024), i64 %56
  %58 = load i8, ptr %57, align 1, !tbaa !8
  store i8 %58, ptr %.0.i15, align 1, !tbaa !8
  %59 = tail call i32 @llvm.abs.i32(i32 %33, i1 true)
  %.not90.i = icmp sle i32 %59, %5
  %or.cond.i.not = select i1 %10, i1 %.not90.i, i1 false
  br i1 %or.cond.i.not, label %60, label %69

60:                                               ; preds = %44
  %61 = add nsw i32 %33, %20
  %62 = sub i32 %61, %51
  %63 = ashr i32 %62, 1
  %64 = icmp slt i32 %63, %15
  %..i9 = tail call i32 @llvm.smin.i32(i32 %63, i32 %8)
  %.0.i10 = select i1 %64, i32 %15, i32 %..i9
  %65 = sub nsw i32 %20, %.0.i10
  %66 = sext i32 %65 to i64
  %67 = getelementptr inbounds i8, ptr getelementptr inbounds nuw (i8, ptr @ff_crop_tab, i64 1024), i64 %66
  %68 = load i8, ptr %67, align 1, !tbaa !8
  store i8 %68, ptr %18, align 1, !tbaa !8
  br label %69

69:                                               ; preds = %60, %44
  %70 = tail call i32 @llvm.abs.i32(i32 %37, i1 true)
  %.not91.i = icmp sle i32 %70, %5
  %or.cond94.i.not = select i1 %11, i1 %.not91.i, i1 false
  br i1 %or.cond94.i.not, label %71, label %80

71:                                               ; preds = %69
  %72 = add nsw i32 %29, %37
  %73 = add nsw i32 %72, %.0.i12
  %74 = ashr i32 %73, 1
  %75 = icmp slt i32 %74, %16
  %..i = tail call i32 @llvm.smin.i32(i32 %74, i32 %7)
  %.0.i8 = select i1 %75, i32 %16, i32 %..i
  %76 = sub nsw i32 %26, %.0.i8
  %77 = sext i32 %76 to i64
  %78 = getelementptr inbounds i8, ptr getelementptr inbounds nuw (i8, ptr @ff_crop_tab, i64 1024), i64 %77
  %79 = load i8, ptr %78, align 1, !tbaa !8
  store i8 %79, ptr %24, align 1, !tbaa !8
  br label %80

80:                                               ; preds = %71, %69, %39, %17
  %81 = add nuw nsw i32 %.087.i14, 1
  %82 = getelementptr inbounds i8, ptr %.0.i15, i64 %1
  %exitcond.not = icmp eq i32 %81, 4
  br i1 %exitcond.not, label %rv40_weak_loop_filter.exit, label %17, !llvm.loop !32

rv40_weak_loop_filter.exit:                       ; preds = %80
  ret void
}